; Function Attrs: mustprogress uwtable
define internal noundef nonnull ptr @_ZN7testing8internal24ParameterizedTestFactoryIN12_GLOBAL__N_138NonTemporalMemcpyTest_SSEEquality_TestEE10CreateTestEv(ptr noundef nonnull align 8 dereferenceable(24) %this) unnamed_addr #3 align 2 personality ptr @__gxx_personality_v0 {
entry:
  %parameter_ = getelementptr inbounds i8, ptr %this, i64 8
  store ptr %parameter_, ptr @_ZN7testing18WithParamInterfaceIN12_GLOBAL__N_19TestParamEE10parameter_E, align 8
  %call = tail call noalias noundef nonnull dereferenceable(72) ptr @_Znwm(i64 noundef 72) #29
  invoke void @_ZN7testing4TestC2Ev(ptr noundef nonnull align 8 dereferenceable(16) %call)
          to label %invoke.cont unwind label %lpad

invoke.cont:                                      ; preds = %entry
  %0 = getelementptr inbounds i8, ptr %call, i64 16
  %a_.i.i = getelementptr inbounds i8, ptr %call, i64 24
  tail call void @llvm.memset.p0.i64(ptr noundef nonnull align 8 dereferenceable(48) %a_.i.i, i8 0, i64 48, i1 false)
  store ptr getelementptr inbounds ({ [8 x ptr], [4 x ptr] }, ptr @_ZTVN12_GLOBAL__N_138NonTemporalMemcpyTest_SSEEquality_TestE, i64 0, i32 0, i64 2), ptr %call, align 8
  store ptr getelementptr inbounds ({ [8 x ptr], [4 x ptr] }, ptr @_ZTVN12_GLOBAL__N_138NonTemporalMemcpyTest_SSEEquality_TestE, i64 0, i32 1, i64 2), ptr %0, align 8
  ret ptr %call

lpad:                                             ; preds = %entry
  %1 = landingpad { ptr, i32 }
          cleanup
  tail call void @_ZdlPv(ptr noundef nonnull %call) #30
  resume { ptr, i32 } %1
}